	.cpu cortex-m4
	.eabi_attribute 27, 1
	.eabi_attribute 28, 1
	.eabi_attribute 20, 1
	.eabi_attribute 21, 1
	.eabi_attribute 23, 3
	.eabi_attribute 24, 1
	.eabi_attribute 25, 1
	.eabi_attribute 26, 1
	.eabi_attribute 30, 2
	.eabi_attribute 34, 1
	.eabi_attribute 18, 4
	.file	"sinParams.c"
	.text
.Ltext0:
	.cfi_sections	.debug_frame
	.align	1
	.p2align 2,,3
	.global	calculateSin1Values
	.syntax unified
	.thumb
	.thumb_func
	.fpu fpv4-sp-d16
	.type	calculateSin1Values, %function
calculateSin1Values:
.LFB9:
	.file 1 "sinParams.c"
	.loc 1 91 0
	.cfi_startproc
	@ args = 0, pretend = 0, frame = 0
	@ frame_needed = 0, uses_anonymous_args = 0
.LVL0:
	push	{r3, r4, r5, lr}
	.cfi_def_cfa_offset 16
	.cfi_offset 3, -16
	.cfi_offset 4, -12
	.cfi_offset 5, -8
	.cfi_offset 14, -4
	.loc 1 93 0
	ldr	r1, .L10
	ldr	r3, .L10+4
	ldr	r2, [r1]
	sdiv	r3, r3, r2
	uxth	r3, r3
	.loc 1 91 0
	vpush.64	{d8, d9, d10}
	.cfi_def_cfa_offset 40
	.cfi_offset 80, -40
	.cfi_offset 81, -36
	.cfi_offset 82, -32
	.cfi_offset 83, -28
	.cfi_offset 84, -24
	.cfi_offset 85, -20
	.loc 1 93 0
	strh	r3, [r1, #16]	@ movhi
.LVL1:
.LBB2:
	.loc 1 95 0
	cbz	r3, .L1
	.loc 1 96 0
	vldr.32	s15, [r1, #4]	@ int
	vldr.32	s13, .L10+8
	ldr	r4, .L10+12
	vldr.32	s14, .L10+16
.LBE2:
	.loc 1 92 0
	vldr.32	s16, .L10+20
.LBB3:
	.loc 1 97 0
	vldr.32	s21, .L10+24
	.loc 1 98 0
	vldr.32	s20, .L10+28
	.loc 1 96 0
	vcvt.f32.s32	s15, s15
	vmov	s12, r2	@ int
	vdiv.f32	s19, s15, s13
	subs	r3, r3, #1
	uxth	r3, r3
	adds	r5, r4, #2
	add	r5, r5, r3, lsl #1
	vcvt.f32.s32	s17, s12
	vmov.f32	s18, #1.5e+0
	vmul.f32	s17, s17, s14
.LVL2:
.L3:
	.loc 1 96 0 is_stmt 0 discriminator 3
	vmul.f32	s0, s17, s16
	bl	sinf
.LVL3:
	vmov.f32	s15, s18
	vfma.f32	s15, s19, s0
	.loc 1 98 0 is_stmt 1 discriminator 3
	vadd.f32	s16, s16, s20
.LVL4:
	.loc 1 97 0 discriminator 3
	vmul.f32	s15, s15, s21
	vcvt.u32.f32	s15, s15
	vmov	r3, s15	@ int
	strh	r3, [r4], #2	@ movhi
	.loc 1 95 0 discriminator 3
	cmp	r5, r4
	bne	.L3
.LVL5:
.L1:
.LBE3:
	.loc 1 100 0
	vldm	sp!, {d8-d10}
	.cfi_restore 84
	.cfi_restore 85
	.cfi_restore 82
	.cfi_restore 83
	.cfi_restore 80
	.cfi_restore 81
	.cfi_def_cfa_offset 16
	pop	{r3, r4, r5, pc}
.L11:
	.align	2
.L10:
	.word	.LANCHOR0
	.word	100000
	.word	1120403456
	.word	.LANCHOR1
	.word	1086918608
	.word	0
	.word	1166012416
	.word	925353388
	.cfi_endproc
.LFE9:
	.size	calculateSin1Values, .-calculateSin1Values
	.align	1
	.p2align 2,,3
	.global	increaseAmplitude1
	.syntax unified
	.thumb
	.thumb_func
	.fpu fpv4-sp-d16
	.type	increaseAmplitude1, %function
increaseAmplitude1:
.LFB1:
	.loc 1 11 0
	.cfi_startproc
	@ args = 0, pretend = 0, frame = 0
	@ frame_needed = 0, uses_anonymous_args = 0
	.loc 1 12 0
	ldr	r1, .L17
	.loc 1 11 0
	push	{r3, lr}
	.cfi_def_cfa_offset 8
	.cfi_offset 3, -8
	.cfi_offset 14, -4
	.loc 1 12 0
	ldr	r3, [r1, #4]
	cmp	r3, #0
	blt	.L13
	.loc 1 12 0 is_stmt 0 discriminator 1
	ldr	r2, [r1, #12]
	cmp	r2, #0
	it	lt
	rsblt	r2, r2, #0
	add	r2, r2, r3
	cmp	r2, #49
	beq	.L15
.L13:
	.loc 1 15 0 is_stmt 1
	adds	r3, r3, #1
	str	r3, [r1, #4]
	.loc 1 16 0
	bl	calculateSin1Values
.LVL6:
	.loc 1 18 0
	movs	r0, #1
	.loc 1 19 0
	pop	{r3, pc}
.L15:
	.loc 1 13 0
	movs	r0, #0
	.loc 1 19 0
	pop	{r3, pc}
.L18:
	.align	2
.L17:
	.word	.LANCHOR0
	.cfi_endproc
.LFE1:
	.size	increaseAmplitude1, .-increaseAmplitude1
	.align	1
	.p2align 2,,3
	.global	decreaseAmplitude1
	.syntax unified
	.thumb
	.thumb_func
	.fpu fpv4-sp-d16
	.type	decreaseAmplitude1, %function
decreaseAmplitude1:
.LFB3:
	.loc 1 31 0
	.cfi_startproc
	@ args = 0, pretend = 0, frame = 0
	@ frame_needed = 0, uses_anonymous_args = 0
	.loc 1 32 0
	ldr	r2, .L24
	.loc 1 31 0
	push	{r3, lr}
	.cfi_def_cfa_offset 8
	.cfi_offset 3, -8
	.cfi_offset 14, -4
	.loc 1 32 0
	ldr	r3, [r2, #4]
	cmp	r3, #0
	bgt	.L20
	.loc 1 32 0 is_stmt 0 discriminator 1
	ldr	r1, [r2, #12]
	cmp	r1, #0
	it	lt
	rsblt	r1, r1, #0
	subs	r1, r1, r3
	cmp	r1, #49
	beq	.L22
.L20:
	.loc 1 35 0 is_stmt 1
	subs	r3, r3, #1
	str	r3, [r2, #4]
	.loc 1 36 0
	bl	calculateSin1Values
.LVL7:
	.loc 1 38 0
	movs	r0, #1
	.loc 1 39 0
	pop	{r3, pc}
.L22:
	.loc 1 33 0
	movs	r0, #0
	.loc 1 39 0
	pop	{r3, pc}
.L25:
	.align	2
.L24:
	.word	.LANCHOR0
	.cfi_endproc
.LFE3:
	.size	decreaseAmplitude1, .-decreaseAmplitude1
	.align	1
	.p2align 2,,3
	.global	increaseFrequency1
	.syntax unified
	.thumb
	.thumb_func
	.fpu fpv4-sp-d16
	.type	increaseFrequency1, %function
increaseFrequency1:
.LFB5:
	.loc 1 51 0
	.cfi_startproc
	@ args = 0, pretend = 0, frame = 0
	@ frame_needed = 0, uses_anonymous_args = 0
	.loc 1 52 0
	ldr	r2, .L30
	.loc 1 51 0
	push	{r3, lr}
	.cfi_def_cfa_offset 8
	.cfi_offset 3, -8
	.cfi_offset 14, -4
	.loc 1 52 0
	ldr	r3, [r2]
	movw	r1, #10000
	cmp	r3, r1
	beq	.L28
	.loc 1 54 0
	ldr	r1, .L30+4
	.loc 1 55 0
	adds	r3, r3, #100
	.loc 1 54 0
	movs	r0, #0
	strh	r0, [r1, #2000]	@ movhi
	.loc 1 55 0
	str	r3, [r2]
	.loc 1 56 0
	bl	calculateSin1Values
.LVL8:
	.loc 1 58 0
	movs	r0, #1
	.loc 1 59 0
	pop	{r3, pc}
.L28:
	.loc 1 52 0
	movs	r0, #0
	.loc 1 59 0
	pop	{r3, pc}
.L31:
	.align	2
.L30:
	.word	.LANCHOR0
	.word	.LANCHOR1
	.cfi_endproc
.LFE5:
	.size	increaseFrequency1, .-increaseFrequency1
	.align	1
	.p2align 2,,3
	.global	decreaseFrequency1
	.syntax unified
	.thumb
	.thumb_func
	.fpu fpv4-sp-d16
	.type	decreaseFrequency1, %function
decreaseFrequency1:
.LFB7:
	.loc 1 71 0
	.cfi_startproc
	@ args = 0, pretend = 0, frame = 0
	@ frame_needed = 0, uses_anonymous_args = 0
	.loc 1 72 0
	ldr	r2, .L36
	.loc 1 71 0
	push	{r3, lr}
	.cfi_def_cfa_offset 8
	.cfi_offset 3, -8
	.cfi_offset 14, -4
	.loc 1 72 0
	ldr	r3, [r2]
	cmp	r3, #100
	beq	.L34
	.loc 1 74 0
	ldr	r1, .L36+4
	.loc 1 75 0
	subs	r3, r3, #100
	.loc 1 74 0
	movs	r0, #0
	strh	r0, [r1, #2000]	@ movhi
	.loc 1 75 0
	str	r3, [r2]
	.loc 1 76 0
	bl	calculateSin1Values
.LVL9:
	.loc 1 78 0
	movs	r0, #1
	.loc 1 79 0
	pop	{r3, pc}
.L34:
	.loc 1 72 0
	movs	r0, #0
	.loc 1 79 0
	pop	{r3, pc}
.L37:
	.align	2
.L36:
	.word	.LANCHOR0
	.word	.LANCHOR1
	.cfi_endproc
.LFE7:
	.size	decreaseFrequency1, .-decreaseFrequency1
	.align	1
	.p2align 2,,3
	.global	calculateSin2Values
	.syntax unified
	.thumb
	.thumb_func
	.fpu fpv4-sp-d16
	.type	calculateSin2Values, %function
calculateSin2Values:
.LFB10:
	.loc 1 102 0
	.cfi_startproc
	@ args = 0, pretend = 0, frame = 0
	@ frame_needed = 0, uses_anonymous_args = 0
.LVL10:
	push	{r3, r4, r5, lr}
	.cfi_def_cfa_offset 16
	.cfi_offset 3, -16
	.cfi_offset 4, -12
	.cfi_offset 5, -8
	.cfi_offset 14, -4
	.loc 1 104 0
	ldr	r1, .L46
	ldr	r3, .L46+4
	ldr	r2, [r1, #8]
	sdiv	r3, r3, r2
	uxth	r3, r3
	.loc 1 102 0
	vpush.64	{d8, d9, d10}
	.cfi_def_cfa_offset 40
	.cfi_offset 80, -40
	.cfi_offset 81, -36
	.cfi_offset 82, -32
	.cfi_offset 83, -28
	.cfi_offset 84, -24
	.cfi_offset 85, -20
	.loc 1 104 0
	strh	r3, [r1, #18]	@ movhi
.LVL11:
.LBB4:
	.loc 1 106 0
	cbz	r3, .L38
	.loc 1 107 0
	vldr.32	s15, [r1, #12]	@ int
	vldr.32	s13, .L46+8
	ldr	r4, .L46+12
	vldr.32	s14, .L46+16
.LBE4:
	.loc 1 103 0
	vldr.32	s16, .L46+20
.LBB5:
	.loc 1 108 0
	vldr.32	s20, .L46+24
	.loc 1 109 0
	vldr.32	s19, .L46+28
	.loc 1 107 0
	vcvt.f32.s32	s15, s15
	vmov	s12, r2	@ int
	vdiv.f32	s18, s15, s13
	subs	r3, r3, #1
	uxth	r3, r3
	adds	r5, r4, #2
	add	r5, r5, r3, lsl #1
	vcvt.f32.s32	s17, s12
	vmul.f32	s17, s17, s14
.LVL12:
.L40:
	.loc 1 107 0 is_stmt 0 discriminator 3
	vmul.f32	s0, s17, s16
	bl	sinf
.LVL13:
	vmul.f32	s0, s18, s0
.LVL14:
	.loc 1 109 0 is_stmt 1 discriminator 3
	vadd.f32	s16, s16, s19
.LVL15:
	.loc 1 108 0 discriminator 3
	vmul.f32	s0, s0, s20
.LVL16:
	vcvt.u32.f32	s0, s0
	vmov	r3, s0	@ int
	strh	r3, [r4], #2	@ movhi
	.loc 1 106 0 discriminator 3
	cmp	r4, r5
	bne	.L40
.LVL17:
.L38:
.LBE5:
	.loc 1 111 0
	vldm	sp!, {d8-d10}
	.cfi_restore 84
	.cfi_restore 85
	.cfi_restore 82
	.cfi_restore 83
	.cfi_restore 80
	.cfi_restore 81
	.cfi_def_cfa_offset 16
	pop	{r3, r4, r5, pc}
.L47:
	.align	2
.L46:
	.word	.LANCHOR0
	.word	100000
	.word	1120403456
	.word	.LANCHOR1+2004
	.word	1086918608
	.word	0
	.word	1166012416
	.word	925353388
	.cfi_endproc
.LFE10:
	.size	calculateSin2Values, .-calculateSin2Values
	.align	1
	.p2align 2,,3
	.global	increaseAmplitude2
	.syntax unified
	.thumb
	.thumb_func
	.fpu fpv4-sp-d16
	.type	increaseAmplitude2, %function
increaseAmplitude2:
.LFB2:
	.loc 1 21 0
	.cfi_startproc
	@ args = 0, pretend = 0, frame = 0
	@ frame_needed = 0, uses_anonymous_args = 0
	.loc 1 22 0
	ldr	r1, .L53
	.loc 1 21 0
	push	{r3, lr}
	.cfi_def_cfa_offset 8
	.cfi_offset 3, -8
	.cfi_offset 14, -4
	.loc 1 22 0
	ldr	r3, [r1, #12]
	cmp	r3, #0
	blt	.L49
	.loc 1 22 0 is_stmt 0 discriminator 1
	ldr	r2, [r1, #4]
	cmp	r2, #0
	it	lt
	rsblt	r2, r2, #0
	add	r2, r2, r3
	cmp	r2, #49
	beq	.L51
.L49:
	.loc 1 25 0 is_stmt 1
	adds	r3, r3, #1
	str	r3, [r1, #12]
	.loc 1 26 0
	bl	calculateSin2Values
.LVL18:
	.loc 1 28 0
	movs	r0, #1
	.loc 1 29 0
	pop	{r3, pc}
.L51:
	.loc 1 23 0
	movs	r0, #0
	.loc 1 29 0
	pop	{r3, pc}
.L54:
	.align	2
.L53:
	.word	.LANCHOR0
	.cfi_endproc
.LFE2:
	.size	increaseAmplitude2, .-increaseAmplitude2
	.align	1
	.p2align 2,,3
	.global	decreaseAmplitude2
	.syntax unified
	.thumb
	.thumb_func
	.fpu fpv4-sp-d16
	.type	decreaseAmplitude2, %function
decreaseAmplitude2:
.LFB4:
	.loc 1 41 0
	.cfi_startproc
	@ args = 0, pretend = 0, frame = 0
	@ frame_needed = 0, uses_anonymous_args = 0
	.loc 1 42 0
	ldr	r2, .L60
	.loc 1 41 0
	push	{r3, lr}
	.cfi_def_cfa_offset 8
	.cfi_offset 3, -8
	.cfi_offset 14, -4
	.loc 1 42 0
	ldr	r3, [r2, #12]
	cmp	r3, #0
	bgt	.L56
	.loc 1 42 0 is_stmt 0 discriminator 1
	ldr	r1, [r2, #4]
	cmp	r1, #0
	it	lt
	rsblt	r1, r1, #0
	subs	r1, r1, r3
	cmp	r1, #49
	beq	.L58
.L56:
	.loc 1 45 0 is_stmt 1
	subs	r3, r3, #1
	str	r3, [r2, #12]
	.loc 1 46 0
	bl	calculateSin2Values
.LVL19:
	.loc 1 48 0
	movs	r0, #1
	.loc 1 49 0
	pop	{r3, pc}
.L58:
	.loc 1 43 0
	movs	r0, #0
	.loc 1 49 0
	pop	{r3, pc}
.L61:
	.align	2
.L60:
	.word	.LANCHOR0
	.cfi_endproc
.LFE4:
	.size	decreaseAmplitude2, .-decreaseAmplitude2
	.align	1
	.p2align 2,,3
	.global	increaseFrequency2
	.syntax unified
	.thumb
	.thumb_func
	.fpu fpv4-sp-d16
	.type	increaseFrequency2, %function
increaseFrequency2:
.LFB6:
	.loc 1 61 0
	.cfi_startproc
	@ args = 0, pretend = 0, frame = 0
	@ frame_needed = 0, uses_anonymous_args = 0
	.loc 1 62 0
	ldr	r2, .L66
	.loc 1 61 0
	push	{r3, lr}
	.cfi_def_cfa_offset 8
	.cfi_offset 3, -8
	.cfi_offset 14, -4
	.loc 1 62 0
	ldr	r3, [r2, #8]
	movw	r1, #10000
	cmp	r3, r1
	beq	.L64
	.loc 1 64 0
	ldr	r1, .L66+4
	.loc 1 65 0
	adds	r3, r3, #100
	.loc 1 64 0
	movs	r0, #0
	strh	r0, [r1, #2000]	@ movhi
	.loc 1 65 0
	str	r3, [r2, #8]
	.loc 1 66 0
	bl	calculateSin2Values
.LVL20:
	.loc 1 68 0
	movs	r0, #1
	.loc 1 69 0
	pop	{r3, pc}
.L64:
	.loc 1 62 0
	movs	r0, #0
	.loc 1 69 0
	pop	{r3, pc}
.L67:
	.align	2
.L66:
	.word	.LANCHOR0
	.word	.LANCHOR1
	.cfi_endproc
.LFE6:
	.size	increaseFrequency2, .-increaseFrequency2
	.align	1
	.p2align 2,,3
	.global	decreaseFrequency2
	.syntax unified
	.thumb
	.thumb_func
	.fpu fpv4-sp-d16
	.type	decreaseFrequency2, %function
decreaseFrequency2:
.LFB8:
	.loc 1 81 0
	.cfi_startproc
	@ args = 0, pretend = 0, frame = 0
	@ frame_needed = 0, uses_anonymous_args = 0
	.loc 1 82 0
	ldr	r2, .L72
	.loc 1 81 0
	push	{r3, lr}
	.cfi_def_cfa_offset 8
	.cfi_offset 3, -8
	.cfi_offset 14, -4
	.loc 1 82 0
	ldr	r3, [r2, #8]
	cmp	r3, #100
	beq	.L70
	.loc 1 84 0
	ldr	r1, .L72+4
	.loc 1 85 0
	subs	r3, r3, #100
	.loc 1 84 0
	movs	r0, #0
	strh	r0, [r1, #2000]	@ movhi
	.loc 1 85 0
	str	r3, [r2, #8]
	.loc 1 86 0
	bl	calculateSin2Values
.LVL21:
	.loc 1 88 0
	movs	r0, #1
	.loc 1 89 0
	pop	{r3, pc}
.L70:
	.loc 1 82 0
	movs	r0, #0
	.loc 1 89 0
	pop	{r3, pc}
.L73:
	.align	2
.L72:
	.word	.LANCHOR0
	.word	.LANCHOR1
	.cfi_endproc
.LFE8:
	.size	decreaseFrequency2, .-decreaseFrequency2
	.align	1
	.p2align 2,,3
	.global	prepareValuesinDACbuff1
	.syntax unified
	.thumb
	.thumb_func
	.fpu fpv4-sp-d16
	.type	prepareValuesinDACbuff1, %function
prepareValuesinDACbuff1:
.LFB11:
	.loc 1 113 0
	.cfi_startproc
	@ args = 0, pretend = 0, frame = 0
	@ frame_needed = 0, uses_anonymous_args = 0
	@ link register save eliminated.
.LVL22:
	push	{r4, r5, r6, r7}
	.cfi_def_cfa_offset 16
	.cfi_offset 4, -16
	.cfi_offset 5, -12
	.cfi_offset 6, -8
	.cfi_offset 7, -4
.LBB6:
	.loc 1 116 0
	ldr	r2, .L80
	ldr	r6, .L80+4
	ldr	r4, .L80+8
	ldrh	r3, [r6, #2000]
	ldrh	r0, [r2, #16]
	ldrh	r5, [r2, #18]
	add	r7, r4, #1000
.LVL23:
.L76:
	udiv	r2, r3, r5
	mls	r2, r5, r2, r3
	udiv	r1, r3, r0
	uxth	r2, r2
	mls	r1, r0, r1, r3
	add	r2, r6, r2, lsl #1
	uxth	r1, r1
	.loc 1 118 0
	adds	r3, r3, #1
	.loc 1 116 0
	ldrh	ip, [r2, #2004]
	ldrh	r1, [r6, r1, lsl #1]
	.loc 1 118 0
	uxth	r3, r3
	.loc 1 119 0
	udiv	r2, r3, r0
	mls	r2, r0, r2, r3
	.loc 1 116 0
	add	r1, r1, ip
	.loc 1 119 0
	uxth	r2, r2
	.loc 1 115 0
	strh	r1, [r4, #2]!	@ movhi
	.loc 1 119 0
	cbnz	r2, .L75
	.loc 1 119 0 is_stmt 0 discriminator 1
	udiv	r2, r3, r5
	mls	r2, r5, r2, r3
	uxth	r2, r2
	cmp	r2, #0
	it	eq
	moveq	r3, #0
.L75:
	.loc 1 114 0 is_stmt 1 discriminator 2
	cmp	r7, r4
	bne	.L76
	strh	r3, [r6, #2000]	@ movhi
.LBE6:
	.loc 1 121 0
	pop	{r4, r5, r6, r7}
	.cfi_restore 7
	.cfi_restore 6
	.cfi_restore 5
	.cfi_restore 4
	.cfi_def_cfa_offset 0
	bx	lr
.L81:
	.align	2
.L80:
	.word	.LANCHOR0
	.word	.LANCHOR1
	.word	dac_buffer1-2
	.cfi_endproc
.LFE11:
	.size	prepareValuesinDACbuff1, .-prepareValuesinDACbuff1
	.align	1
	.p2align 2,,3
	.global	prepareValuesinDACbuff2
	.syntax unified
	.thumb
	.thumb_func
	.fpu fpv4-sp-d16
	.type	prepareValuesinDACbuff2, %function
prepareValuesinDACbuff2:
.LFB12:
	.loc 1 123 0
	.cfi_startproc
	@ args = 0, pretend = 0, frame = 0
	@ frame_needed = 0, uses_anonymous_args = 0
	@ link register save eliminated.
.LVL24:
	push	{r4, r5, r6, r7}
	.cfi_def_cfa_offset 16
	.cfi_offset 4, -16
	.cfi_offset 5, -12
	.cfi_offset 6, -8
	.cfi_offset 7, -4
.LBB7:
	.loc 1 126 0
	ldr	r2, .L88
	ldr	r6, .L88+4
	ldr	r4, .L88+8
	ldrh	r3, [r6, #2000]
	ldrh	r0, [r2, #16]
	ldrh	r5, [r2, #18]
	add	r7, r4, #1000
.LVL25:
.L84:
	udiv	r2, r3, r5
	mls	r2, r5, r2, r3
	udiv	r1, r3, r0
	uxth	r2, r2
	mls	r1, r0, r1, r3
	add	r2, r6, r2, lsl #1
	uxth	r1, r1
	.loc 1 128 0
	adds	r3, r3, #1
	.loc 1 126 0
	ldrh	ip, [r2, #2004]
	ldrh	r1, [r6, r1, lsl #1]
	.loc 1 128 0
	uxth	r3, r3
	.loc 1 129 0
	udiv	r2, r3, r0
	mls	r2, r0, r2, r3
	.loc 1 126 0
	add	r1, r1, ip
	.loc 1 129 0
	uxth	r2, r2
	.loc 1 125 0
	strh	r1, [r4, #2]!	@ movhi
	.loc 1 129 0
	cbnz	r2, .L83
	.loc 1 129 0 is_stmt 0 discriminator 1
	udiv	r2, r3, r5
	mls	r2, r5, r2, r3
	uxth	r2, r2
	cmp	r2, #0
	it	eq
	moveq	r3, #0
.L83:
	.loc 1 124 0 is_stmt 1 discriminator 2
	cmp	r7, r4
	bne	.L84
	strh	r3, [r6, #2000]	@ movhi
.LBE7:
	.loc 1 131 0
	pop	{r4, r5, r6, r7}
	.cfi_restore 7
	.cfi_restore 6
	.cfi_restore 5
	.cfi_restore 4
	.cfi_def_cfa_offset 0
	bx	lr
.L89:
	.align	2
.L88:
	.word	.LANCHOR0
	.word	.LANCHOR1
	.word	dac_buffer2-2
	.cfi_endproc
.LFE12:
	.size	prepareValuesinDACbuff2, .-prepareValuesinDACbuff2
	.align	1
	.p2align 2,,3
	.global	initLCS
	.syntax unified
	.thumb
	.thumb_func
	.fpu fpv4-sp-d16
	.type	initLCS, %function
initLCS:
.LFB0:
	.loc 1 3 0
	.cfi_startproc
	@ args = 0, pretend = 0, frame = 0
	@ frame_needed = 0, uses_anonymous_args = 0
	push	{r3, lr}
	.cfi_def_cfa_offset 8
	.cfi_offset 3, -8
	.cfi_offset 14, -4
	.loc 1 4 0
	bl	calculateSin1Values
.LVL26:
	.loc 1 5 0
	bl	calculateSin2Values
.LVL27:
	.loc 1 7 0
	bl	prepareValuesinDACbuff1
.LVL28:
	.loc 1 9 0
	pop	{r3, lr}
	.cfi_restore 14
	.cfi_restore 3
	.cfi_def_cfa_offset 0
	.loc 1 8 0
	b	prepareValuesinDACbuff2
.LVL29:
	.cfi_endproc
.LFE0:
	.size	initLCS, .-initLCS
	.comm	dac_buffer2,1000,4
	.comm	dac_buffer1,1000,4
	.data
	.align	2
	.set	.LANCHOR0,. + 0
	.type	sinParams, %object
	.size	sinParams, 16
sinParams:
	.word	100
	.word	20
	.word	100
	.word	20
	.type	numOfsin1values, %object
	.size	numOfsin1values, 2
numOfsin1values:
	.short	1000
	.type	numOfsin2values, %object
	.size	numOfsin2values, 2
numOfsin2values:
	.short	1000
	.bss
	.align	2
	.set	.LANCHOR1,. + 0
	.type	sin1values, %object
	.size	sin1values, 2000
sin1values:
	.space	2000
	.type	t, %object
	.size	t, 2
t:
	.space	2
	.space	2
	.type	sin2values, %object
	.size	sin2values, 2000
sin2values:
	.space	2000
	.text
.Letext0:
	.file 2 "/home/adil/Downloads/MSUT/Zadaca/gcc-arm-none-eabi/arm-none-eabi/include/machine/_default_types.h"
	.file 3 "/home/adil/Downloads/MSUT/Zadaca/gcc-arm-none-eabi/arm-none-eabi/include/sys/lock.h"
	.file 4 "/home/adil/Downloads/MSUT/Zadaca/gcc-arm-none-eabi/arm-none-eabi/include/sys/_types.h"
	.file 5 "/home/adil/Downloads/MSUT/Zadaca/gcc-arm-none-eabi/lib/gcc/arm-none-eabi/7.3.1/include/stddef.h"
	.file 6 "/home/adil/Downloads/MSUT/Zadaca/gcc-arm-none-eabi/arm-none-eabi/include/sys/reent.h"
	.file 7 "/home/adil/Downloads/MSUT/Zadaca/gcc-arm-none-eabi/arm-none-eabi/include/math.h"
	.file 8 "/home/adil/Downloads/MSUT/Zadaca/gcc-arm-none-eabi/arm-none-eabi/include/sys/_stdint.h"
	.file 9 "/home/adil/Downloads/MSUT/Zadaca/gcc-arm-none-eabi/arm-none-eabi/include/stdlib.h"
	.file 10 "sinParams.h"